(iadv
SavedState
p0
(dp1
S'continuation'
p2
(I2
I1372
tp3
sS'locations'
p4
(dp5
(I2
I285
tp6
(I2
I57
tp7
s(I2
I326
tp8
(I2
I64
tp9
s(I2
I311
tp10
(I2
I268
tp11
s(I2
I352
tp12
(I2
I170
tp13
s(I2
I290
tp14
(I2
I58
tp15
s(I2
I367
tp16
(I2
I280
tp17
s(I2
I337
tp18
(I2
I280
tp19
s(I2
I348
tp20
(I2
I41
tp21
s(I2
I286
tp22
(I2
I54
tp23
s(I2
I331
tp24
(I2
I123
tp25
s(I2
I312
tp26
(I2
I211
tp27
s(I2
I357
tp28
(I2
I132
tp29
s(I2
I295
tp30
(I2
I280
tp31
s(I2
I338
tp32
(I2
I280
tp33
s(I2
I321
tp34
(I2
I216
tp35
s(I2
I332
tp36
(I2
I280
tp37
s(I2
I317
tp38
(I2
I280
tp39
s(I2
I358
tp40
(I2
I280
tp41
s(I2
I296
tp42
(I2
I123
tp43
s(I2
I343
tp44
(I2
I275
tp45
s(I2
I322
tp46
(I2
I56
tp47
s(I2
I369
tp48
(I2
I221
tp49
s(I2
I307
tp50
(I2
I280
tp51
s(I2
I318
tp52
(I2
I122
tp53
s(I2
I363
tp54
(I2
I280
tp55
s(I2
I301
tp56
(I2
I280
tp57
s(I2
I344
tp58
(I2
I247
tp59
s(I2
I282
tp60
(I2
I46
tp61
s(I2
I327
tp62
(I2
I280
tp63
s(I2
I370
tp64
(I2
I280
tp65
s(I2
I308
tp66
(I2
I154
tp67
s(I2
I353
tp68
(I2
I280
tp69
s(I2
I291
tp70
(I2
I136
tp71
s(I2
I364
tp72
(I2
I280
tp73
s(I2
I302
tp74
(I2
I224
tp75
s(I2
I349
tp76
(I2
I48
tp77
s(I2
I287
tp78
(I2
I127
tp79
s(I2
I328
tp80
(I2
I119
tp81
s(I2
I313
tp82
(I2
I214
tp83
s(I2
I354
tp84
(I2
I122
tp85
s(I2
I292
tp86
(I2
I158
tp87
s(I2
I339
tp88
(I2
I198
tp89
s(I2
I350
tp90
(I2
I51
tp91
s(I2
I333
tp92
(I2
I126
tp93
s(I2
I314
tp94
(I2
I193
tp95
s(I2
I359
tp96
(I2
I280
tp97
s(I2
I297
tp98
(I2
I280
tp99
s(I2
I340
tp100
(I2
I141
tp101
s(I2
I323
tp102
(I2
I55
tp103
s(I2
I334
tp104
(I2
I193
tp105
s(I2
I304
tp106
(I2
I139
tp107
s(I2
I319
tp108
(I2
I278
tp109
s(I2
I360
tp110
(I2
I41
tp111
s(I2
I298
tp112
(I2
I149
tp113
s(I2
I345
tp114
(I2
I197
tp115
s(I2
I283
tp116
(I2
I52
tp117
s(I2
I324
tp118
(I2
I62
tp119
s(I2
I309
tp120
(I2
I156
tp121
s(I2
I288
tp122
(I2
I280
tp123
s(I2
I365
tp124
(I2
I280
tp125
s(I2
I303
tp126
(I2
I165
tp127
s(I2
I346
tp128
(I2
I270
tp129
s(I2
I284
tp130
(I2
I120
tp131
s(I2
I329
tp132
(I2
I121
tp133
s(I2
I310
tp134
(I2
I271
tp135
s(I2
I355
tp136
(I2
I129
tp137
s(I2
I293
tp138
(I2
I280
tp139
s(I2
I366
tp140
(I2
I212
tp141
s(I2
I336
tp142
(I2
I127
tp143
s(I2
I351
tp144
(I2
I49
tp145
s(I2
I330
tp146
(I2
I213
tp147
s(I2
I315
tp148
(I2
I193
tp149
s(I2
I356
tp150
(I2
I280
tp151
s(I2
I294
tp152
(I2
I67
tp153
s(I2
I341
tp154
(I2
I201
tp155
s(I2
I320
tp156
(I2
I278
tp157
s(I2
I335
tp158
(I2
I160
tp159
s(I2
I305
tp160
(I2
I280
tp161
s(I2
I316
tp162
(I2
I201
tp163
s(I2
I361
tp164
(I2
I41
tp165
s(I2
I299
tp166
(I2
I146
tp167
s(I2
I342
tp168
(I2
I280
tp169
s(I2
I325
tp170
(I2
I63
tp171
s(I2
I368
tp172
(I2
I222
tp173
s(I2
I306
tp174
(I2
I280
tp175
s(I2
I289
tp176
(I2
I61
tp177
s(I2
I362
tp178
(I2
I196
tp179
s(I2
I300
tp180
(I2
I146
tp181
s(I2
I347
tp182
(I2
I41
tp183
ssS'values'
p184
(dp185
(I2
I7
tp186
(I0
I1
tp187
s(I2
I5
tp188
(I0
I300
tp189
s(I2
I6
tp190
(I2
I370
tp191
s(I2
I19
tp192
(I0
I4
tp193
s(I2
I10
tp194
(I0
I0
tp195
s(I2
I8
tp196
(I0
I1
tp197
s(I2
I341
tp198
(I0
I1
tp199
s(I2
I20
tp200
(I0
I16
tp201
s(I2
I1
tp202
(I0
I0
tp203
s(I2
I36
tp204
(I0
I1
tp205
s(I2
I23
tp206
(I0
I2
tp207
s(I2
I0
tp208
(I2
I39
tp209
s(I2
I25
tp210
(I0
I0
tp211
s(I2
I34
tp212
(I0
I0
tp213
s(I2
I37
tp214
(I1
S'NO'
p215
tp216
s(I2
I362
tp217
(I0
I1
tp218
s(I2
I292
tp219
(I0
I8
tp220
s(I2
I17
tp221
(I0
I1
tp222
s(I2
I26
tp223
(I0
I7
tp224
ssS'output'
p225
S'\nYou are standing at the end of a road before a small brick building.\nAround you is a forest.  A small stream flows out of the building and\ndown a gully.\n'
p226
sS'bits'
p227
(dp228
(I2
I103
tp229
(I0
I256
tp230
s(I2
I208
tp231
(I0
I168
tp232
s(I2
I285
tp233
(I0
I32
tp234
s(I2
I326
tp235
(I0
I5
tp236
s(I2
I41
tp237
(I0
I81
tp238
s(I2
I146
tp239
(I0
I524
tp240
s(I2
I264
tp241
(I0
I160
tp242
s(I2
I84
tp243
(I0
I168
tp244
s(I2
I129
tp245
(I0
I8
tp246
s(I2
I202
tp247
(I0
I168
tp248
s(I2
I352
tp249
(I0
I17
tp250
s(I2
I67
tp251
(I0
I768
tp252
s(I2
I140
tp253
(I0
I4
tp254
s(I2
I249
tp255
(I0
I160
tp256
s(I2
I290
tp257
(I0
I136
tp258
s(I2
I367
tp259
(I0
I17
tp260
s(I2
I78
tp261
(I0
I424
tp262
s(I2
I187
tp263
(I0
I12
tp264
s(I2
I228
tp265
(I0
I520
tp266
s(I2
I337
tp267
(I0
I5
tp268
s(I2
I48
tp269
(I0
I5
tp270
s(I2
I125
tp271
(I0
I44
tp272
s(I2
I166
tp273
(I0
I4
tp274
s(I2
I348
tp275
(I0
I1
tp276
s(I2
I63
tp277
(I0
I256
tp278
s(I2
I104
tp279
(I0
I512
tp280
s(I2
I286
tp281
(I0
I136
tp282
s(I2
I331
tp283
(I0
I5
tp284
s(I2
I42
tp285
(I0
I81
tp286
s(I2
I151
tp287
(I0
I4
tp288
s(I2
I192
tp289
(I0
I5
tp290
s(I2
I89
tp291
(I0
I680
tp292
s(I2
I207
tp293
(I0
I168
tp294
s(I2
I357
tp295
(I0
I1
tp296
s(I2
I68
tp297
(I0
I768
tp298
s(I2
I177
tp299
(I0
I12
tp300
s(I2
I250
tp301
(I0
I168
tp302
s(I2
I295
tp303
(I0
I32
tp304
s(I2
I115
tp305
(I0
I424
tp306
s(I2
I188
tp307
(I0
I12
tp308
s(I2
I233
tp309
(I0
I160
tp310
s(I2
I338
tp311
(I0
I5
tp312
s(I2
I126
tp313
(I0
I45
tp314
s(I2
I171
tp315
(I0
I4
tp316
s(I2
I321
tp317
(I0
I21
tp318
s(I2
I109
tp319
(I0
I168
tp320
s(I2
I259
tp321
(I0
I160
tp322
s(I2
I332
tp323
(I0
I1
tp324
s(I2
I47
tp325
(I0
I5
tp326
s(I2
I152
tp327
(I0
I4
tp328
s(I2
I197
tp329
(I0
I5
tp330
s(I2
I270
tp331
(I0
I256
tp332
s(I2
I90
tp333
(I0
I424
tp334
s(I2
I240
tp335
(I0
I424
tp336
s(I2
I317
tp337
(I0
I1
tp338
s(I2
I358
tp339
(I0
I160
tp340
s(I2
I178
tp341
(I0
I12
tp342
s(I2
I255
tp343
(I0
I168
tp344
s(I2
I296
tp345
(I0
I128
tp346
s(I2
I116
tp347
(I0
I168
tp348
s(I2
I161
tp349
(I0
I4
tp350
s(I2
I234
tp351
(I0
I168
tp352
s(I2
I343
tp353
(I0
I5
tp354
s(I2
I54
tp355
(I0
I512
tp356
s(I2
I99
tp357
(I0
I512
tp358
s(I2
I172
tp359
(I0
I4
tp360
s(I2
I322
tp361
(I0
I5
tp362
s(I2
I37
tp363
(I0
I4096
tp364
s(I2
I110
tp365
(I0
I424
tp366
s(I2
I219
tp367
(I0
I256
tp368
s(I2
I260
tp369
(I0
I160
tp370
s(I2
I369
tp371
(I0
I273
tp372
s(I2
I80
tp373
(I0
I424
tp374
s(I2
I157
tp375
(I0
I12
tp376
s(I2
I198
tp377
(I0
I4
tp378
s(I2
I136
tp379
(I0
I520
tp380
s(I2
I245
tp381
(I0
I160
tp382
s(I2
I318
tp383
(I0
I128
tp384
s(I2
I74
tp385
(I0
I160
tp386
s(I2
I183
tp387
(I0
I12
tp388
s(I2
I301
tp389
(I0
I8
tp390
s(I0
I0
tp391
(I0
I0
tp392
s(I2
I121
tp393
(I0
I576
tp394
s(I2
I162
tp395
(I0
I4
tp396
s(I2
I239
tp397
(I0
I424
tp398
s(I2
I344
tp399
(I0
I21
tp400
s(I2
I59
tp401
(I0
I512
tp402
s(I2
I100
tp403
(I0
I512
tp404
s(I2
I209
tp405
(I0
I168
tp406
s(I2
I282
tp407
(I0
I72
tp408
s(I2
I327
tp409
(I0
I21
tp410
s(I2
I147
tp411
(I0
I524
tp412
s(I2
I265
tp413
(I0
I160
tp414
s(I2
I370
tp415
(I0
I32
tp416
s(I2
I85
tp417
(I0
I168
tp418
s(I2
I158
tp419
(I0
I45
tp420
s(I2
I203
tp421
(I0
I168
tp422
s(I2
I308
tp423
(I0
I136
tp424
s(I2
I353
tp425
(I0
I1
tp426
s(I2
I141
tp427
(I0
I773
tp428
s(I2
I246
tp429
(I0
I424
tp430
s(I2
I291
tp431
(I0
I128
tp432
s(I2
I79
tp433
(I0
I424
tp434
s(I2
I184
tp435
(I0
I12
tp436
s(I2
I229
tp437
(I0
I168
tp438
s(I2
I302
tp439
(I0
I32
tp440
s(I2
I122
tp441
(I0
I256
tp442
s(I2
I167
tp443
(I0
I516
tp444
s(I2
I272
tp445
(I0
I8
tp446
s(I2
I349
tp447
(I0
I17
tp448
s(I2
I60
tp449
(I0
I4
tp450
s(I2
I105
tp451
(I0
I8
tp452
s(I2
I210
tp453
(I0
I168
tp454
s(I2
I328
tp455
(I0
I5
tp456
s(I2
I43
tp457
(I0
I17
tp458
s(I2
I193
tp459
(I0
I5
tp460
s(I2
I266
tp461
(I0
I512
tp462
s(I2
I86
tp463
(I0
I424
tp464
s(I2
I131
tp465
(I0
I256
tp466
s(I2
I204
tp467
(I0
I168
tp468
s(I2
I313
tp469
(I0
I72
tp470
s(I2
I354
tp471
(I0
I1
tp472
s(I2
I142
tp473
(I0
I17
tp474
s(I2
I251
tp475
(I0
I168
tp476
s(I2
I292
tp477
(I0
I136
tp478
s(I2
I112
tp479
(I0
I168
tp480
s(I2
I189
tp481
(I0
I12
tp482
s(I2
I230
tp483
(I0
I168
tp484
s(I2
I339
tp485
(I0
I5
tp486
s(I2
I127
tp487
(I0
I44
tp488
s(I2
I168
tp489
(I0
I516
tp490
s(I2
I277
tp491
(I0
I513
tp492
s(I2
I350
tp493
(I0
I545
tp494
s(I2
I215
tp495
(I0
I4
tp496
s(I2
I256
tp497
(I0
I160
tp498
s(I2
I333
tp499
(I0
I5
tp500
s(I2
I44
tp501
(I0
I17
tp502
s(I2
I153
tp503
(I0
I4
tp504
s(I2
I194
tp505
(I0
I4
tp506
s(I2
I271
tp507
(I0
I8
tp508
s(I2
I241
tp509
(I0
I168
tp510
s(I2
I314
tp511
(I0
I128
tp512
s(I2
I359
tp513
(I0
I129
tp514
s(I2
I70
tp515
(I0
I512
tp516
s(I2
I179
tp517
(I0
I12
tp518
s(I2
I252
tp519
(I0
I168
tp520
s(I2
I297
tp521
(I0
I128
tp522
s(I2
I190
tp523
(I0
I12
tp524
s(I2
I235
tp525
(I0
I416
tp526
s(I2
I340
tp527
(I0
I21
tp528
s(I2
I55
tp529
(I0
I512
tp530
s(I2
I173
tp531
(I0
I12
tp532
s(I2
I278
tp533
(I0
I257
tp534
s(I2
I323
tp535
(I0
I5
tp536
s(I2
I111
tp537
(I0
I424
tp538
s(I2
I216
tp539
(I0
I260
tp540
s(I2
I261
tp541
(I0
I160
tp542
s(I2
I334
tp543
(I0
I5
tp544
s(I2
I81
tp545
(I0
I424
tp546
s(I2
I154
tp547
(I0
I517
tp548
s(I2
I199
tp549
(I0
I4
tp550
s(I2
I304
tp551
(I0
I32
tp552
s(I2
I137
tp553
(I0
I168
tp554
s(I2
I242
tp555
(I0
I168
tp556
s(I2
I360
tp557
(I0
I257
tp558
s(I2
I75
tp559
(I0
I168
tp560
s(I2
I180
tp561
(I0
I12
tp562
s(I2
I225
tp563
(I0
I1
tp564
s(I2
I298
tp565
(I0
I40
tp566
s(I2
I118
tp567
(I0
I520
tp568
s(I2
I163
tp569
(I0
I516
tp570
s(I2
I236
tp571
(I0
I168
tp572
s(I2
I345
tp573
(I0
I5
tp574
s(I2
I56
tp575
(I0
I256
tp576
s(I2
I174
tp577
(I0
I12
tp578
s(I2
I283
tp579
(I0
I136
tp580
s(I2
I324
tp581
(I0
I5
tp582
s(I2
I39
tp583
(I0
I83
tp584
s(I2
I144
tp585
(I0
I1
tp586
s(I2
I221
tp587
(I0
I256
tp588
s(I2
I262
tp589
(I0
I160
tp590
s(I2
I82
tp591
(I0
I168
tp592
s(I2
I159
tp593
(I0
I5
tp594
s(I2
I200
tp595
(I0
I4
tp596
s(I2
I309
tp597
(I0
I128
tp598
s(I2
I138
tp599
(I0
I832
tp600
s(I2
I247
tp601
(I0
I424
tp602
s(I2
I288
tp603
(I0
I128
tp604
s(I2
I365
tp605
(I0
I1
tp606
s(I2
I76
tp607
(I0
I168
tp608
s(I2
I185
tp609
(I0
I12
tp610
s(I2
I226
tp611
(I0
I512
tp612
s(I2
I303
tp613
(I0
I40
tp614
s(I2
I164
tp615
(I0
I516
tp616
s(I2
I346
tp617
(I0
I21
tp618
s(I2
I61
tp619
(I0
I4
tp620
s(I2
I211
tp621
(I0
I424
tp622
s(I2
I284
tp623
(I0
I64
tp624
s(I2
I329
tp625
(I0
I5
tp626
s(I2
I40
tp627
(I0
I17
tp628
s(I2
I222
tp629
(I0
I256
tp630
s(I2
I87
tp631
(I0
I168
tp632
s(I2
I205
tp633
(I0
I168
tp634
s(I2
I310
tp635
(I0
I136
tp636
s(I2
I355
tp637
(I0
I97
tp638
s(I2
I143
tp639
(I0
I9
tp640
s(I2
I248
tp641
(I0
I168
tp642
s(I2
I366
tp643
(I0
I1
tp644
s(I2
I113
tp645
(I0
I168
tp646
s(I2
I186
tp647
(I0
I12
tp648
s(I2
I231
tp649
(I0
I416
tp650
s(I2
I336
tp651
(I0
I5
tp652
s(I2
I51
tp653
(I0
I32
tp654
s(I2
I124
tp655
(I0
I512
tp656
s(I2
I169
tp657
(I0
I516
tp658
s(I2
I351
tp659
(I0
I1
tp660
s(I2
I62
tp661
(I0
I512
tp662
s(I2
I212
tp663
(I0
I256
tp664
s(I2
I257
tp665
(I0
I160
tp666
s(I2
I330
tp667
(I0
I5
tp668
s(I2
I1263
tp669
(I0
I513
tp670
s(I2
I45
tp671
(I0
I81
tp672
s(I2
I195
tp673
(I0
I4
tp674
s(I2
I88
tp675
(I0
I424
tp676
s(I2
I133
tp677
(I0
I160
tp678
s(I2
I206
tp679
(I0
I168
tp680
s(I2
I356
tp681
(I0
I97
tp682
s(I2
I71
tp683
(I0
I68
tp684
s(I2
I176
tp685
(I0
I12
tp686
s(I2
I253
tp687
(I0
I168
tp688
s(I2
I294
tp689
(I0
I8
tp690
s(I2
I114
tp691
(I0
I424
tp692
s(I2
I191
tp693
(I0
I12
tp694
s(I2
I232
tp695
(I0
I168
tp696
s(I2
I341
tp697
(I0
I69
tp698
s(I2
I52
tp699
(I0
I512
tp700
s(I2
I170
tp701
(I0
I4
tp702
s(I2
I279
tp703
(I0
I521
tp704
s(I2
I320
tp705
(I0
I21
tp706
s(I2
I108
tp707
(I0
I256
tp708
s(I2
I258
tp709
(I0
I160
tp710
s(I2
I335
tp711
(I0
I21
tp712
s(I2
I46
tp713
(I0
I49
tp714
s(I2
I155
tp715
(I0
I525
tp716
s(I2
I196
tp717
(I0
I4
tp718
s(I2
I305
tp719
(I0
I32
tp720
s(I2
I134
tp721
(I0
I40
tp722
s(I2
I243
tp723
(I0
I168
tp724
s(I2
I316
tp725
(I0
I545
tp726
s(I2
I361
tp727
(I0
I1
tp728
s(I2
I72
tp729
(I0
I512
tp730
s(I2
I181
tp731
(I0
I12
tp732
s(I2
I254
tp733
(I0
I168
tp734
s(I2
I299
tp735
(I0
I8
tp736
s(I2
I160
tp737
(I0
I4
tp738
s(I2
I237
tp739
(I0
I168
tp740
s(I2
I342
tp741
(I0
I5
tp742
s(I2
I57
tp743
(I0
I32
tp744
s(I2
I175
tp745
(I0
I12
tp746
s(I2
I325
tp747
(I0
I5
tp748
s(I2
I36
tp749
(I0
I4096
tp750
s(I2
I145
tp751
(I0
I172
tp752
s(I2
I263
tp753
(I0
I160
tp754
s(I2
I368
tp755
(I0
I65
tp756
s(I2
I238
tp757
(I0
I168
tp758
s(I2
I83
tp759
(I0
I168
tp760
s(I2
I156
tp761
(I0
I5
tp762
s(I2
I201
tp763
(I0
I4
tp764
s(I2
I94
tp765
(I0
I256
tp766
s(I2
I139
tp767
(I0
I580
tp768
s(I2
I244
tp769
(I0
I168
tp770
s(I2
I362
tp771
(I0
I81
tp772
s(I2
I77
tp773
(I0
I168
tp774
s(I2
I182
tp775
(I0
I12
tp776
s(I2
I227
tp777
(I0
I512
tp778
s(I2
I300
tp779
(I0
I40
tp780
s(I2
I165
tp781
(I0
I12
tp782
s(I2
I1262
tp783
(I0
I513
tp784
s(I2
I347
tp785
(I0
I1
tp786
s(I2
I58
tp787
(I0
I512
tp788
ssS'exited'
p789
I00
sb.